target datalayout = "e-m:e-p270:32:32-p271:32:32-p272:64:64-i64:64-i128:128-f80:128-n8:16:32:64-S128"
target triple = "x86_64-pc-linux-gnu"

%union.pthread_mutex_t = type { %struct.__pthread_mutex_s }
%struct.__pthread_mutex_s = type { i32, i32, i32, i32, i32, i16, i16, %struct.__pthread_internal_list }
%struct.__pthread_internal_list = type { ptr, ptr }
%struct.WOLFSSL_SESSION = type { i32, i32, %struct.wolfSSL_RefWithMutex, [32 x i8], i8, ptr, i8, i32, i32, [32 x i8], i8, [48 x i8], i16, i8, i8, i16, [20 x i8], i16, i8 }
%struct.wolfSSL_RefWithMutex = type { %union.pthread_mutex_t, i32 }
%struct.WOLFSSL_BUFFER_INFO = type { ptr, i32 }
%struct.WOLFSSL = type <{ ptr, ptr, ptr, ptr, [48 x i8], [48 x i8], ptr, ptr, ptr, ptr, ptr, ptr, ptr, ptr, ptr, ptr, ptr, ptr, ptr, i32, [4 x i8], %struct.WOLFSSL_CIPHER, ptr, %struct.Ciphers, %struct.Ciphers, [8 x i8], %struct.Buffers, ptr, ptr, %struct.WOLFSSL_ALERT_HISTORY, %struct.WOLFSSL_ALERT, i32, i32, i32, i32, i32, i32, i32, i16, [2 x i8], i32, i8, %struct.RecordLayerHeader, %struct.MsgsReceived, %struct.ProtocolVersion, %struct.ProtocolVersion, %struct.CipherSpecs, [2 x i8], %struct.Keys, %struct.Options, ptr, i8, i8, i16, [10 x i16], i8, i8, i16, i16, [38 x i8], i32, i32, [4 x i8], ptr, i8, i8, [6 x i8], ptr, ptr, i16, i8, i8, i32, i8, [3 x i8], i32, %struct.OneTimeAuth, ptr }>
%struct.WOLFSSL_CIPHER = type { i8, i8, ptr }
%struct.Ciphers = type { ptr, ptr, ptr, ptr, i8, i8 }
%struct.Buffers = type { %struct.bufferStatic, %struct.bufferStatic, %struct.WOLFSSL_BUFFER_INFO, %struct.WOLFSSL_BUFFER_INFO, %struct.WOLFSSL_BUFFER_INFO, %struct.WOLFSSL_BUFFER_INFO, i32, i32, i8, i8, i8, i8, %struct.WOLFSSL_BUFFER_INFO, %struct.WOLFSSL_BUFFER_INFO, %struct.WOLFSSL_BUFFER_INFO, %struct.WOLFSSL_BUFFER_INFO, ptr, ptr, ptr, i8, i8, i32, i32, ptr, i32, [1 x ptr] }
%struct.bufferStatic = type { [5 x i8], ptr, i32, i32, i32, i8, i8 }
%struct.WOLFSSL_ALERT_HISTORY = type { %struct.WOLFSSL_ALERT, %struct.WOLFSSL_ALERT }
%struct.WOLFSSL_ALERT = type { i32, i32 }
%struct.RecordLayerHeader = type { i8, i8, i8, [2 x i8] }
%struct.MsgsReceived = type { i32 }
%struct.ProtocolVersion = type { i8, i8 }
%struct.CipherSpecs = type { i16, i16, i16, i16, i8, i8, i8, i8, i8, i8, i8, i8 }
%struct.Keys = type { [64 x i8], [64 x i8], [32 x i8], [32 x i8], [16 x i8], [16 x i8], [8 x i8], [12 x i8], [12 x i8], i32, i32, i32, i32, i32, i32, i8, i8, i8, i8 }
%struct.Options = type { i64, i64, i8, i8, i8, i8, i8, i8, i8, i8, i8, i8, i8, i8, i8, i8, i8, i8, i8, i8, i8, i8, i8, i16, i16, i16, i16, i16, i8 }
%struct.OneTimeAuth = type { ptr, i8 }
%struct.Arrays = type { ptr, ptr, i32, i32, i32, [32 x i8], [32 x i8], [32 x i8], i8, [48 x i8], [48 x i8], i8 }

; Function Attrs: nounwind uwtable
define void @SetupSession(ptr noundef %0) #0 {
  %2 = alloca ptr, align 8
  %3 = alloca ptr, align 8
  store ptr %0, ptr %2, align 8, !tbaa !61
  call void @llvm.lifetime.start.p0(i64 8, ptr %3) #9
  %4 = load ptr, ptr %2, align 8, !tbaa !61
  %5 = getelementptr inbounds nuw %struct.WOLFSSL, ptr %4, i32 0, i32 27
  %6 = load ptr, ptr %5, align 16, !tbaa !89
  store ptr %6, ptr %3, align 8, !tbaa !53
  br label %7

7:                                                ; preds = %1
  br label %8

8:                                                ; preds = %7
  br label %9

9:                                                ; preds = %8
  %10 = load ptr, ptr %2, align 8, !tbaa !61
  %11 = getelementptr inbounds nuw %struct.WOLFSSL, ptr %10, i32 0, i32 44
  %12 = load i16, ptr %11, align 2
  %13 = call i32 @IsAtLeastTLSv1_3(i16 %12)
  %14 = icmp ne i32 %13, 0
  br i1 %14, label %52, label %15

15:                                               ; preds = %9
  %16 = load ptr, ptr %2, align 8, !tbaa !61
  %17 = getelementptr inbounds nuw %struct.WOLFSSL, ptr %16, i32 0, i32 3
  %18 = load ptr, ptr %17, align 8, !tbaa !129
  %19 = icmp ne ptr %18, null
  br i1 %19, label %20, label %52

20:                                               ; preds = %15
  %21 = load ptr, ptr %3, align 8, !tbaa !53
  %22 = getelementptr inbounds nuw %struct.WOLFSSL_SESSION, ptr %21, i32 0, i32 4
  %23 = load i8, ptr %22, align 8
  %24 = and i8 %23, 1
  %25 = icmp ne i8 %24, 0
  br i1 %25, label %42, label %26

26:                                               ; preds = %20
  %27 = load ptr, ptr %3, align 8, !tbaa !53
  %28 = getelementptr inbounds nuw %struct.WOLFSSL_SESSION, ptr %27, i32 0, i32 9
  %29 = getelementptr inbounds [32 x i8], ptr %28, i64 0, i64 0
  %30 = load ptr, ptr %2, align 8, !tbaa !61
  %31 = getelementptr inbounds nuw %struct.WOLFSSL, ptr %30, i32 0, i32 3
  %32 = load ptr, ptr %31, align 8, !tbaa !129
  %33 = getelementptr inbounds nuw %struct.Arrays, ptr %32, i32 0, i32 7
  %34 = getelementptr inbounds [32 x i8], ptr %33, i64 0, i64 0
  call void @llvm.memcpy.p0.p0.i64(ptr align 4 %29, ptr align 4 %34, i64 32, i1 false)
  %35 = load ptr, ptr %2, align 8, !tbaa !61
  %36 = getelementptr inbounds nuw %struct.WOLFSSL, ptr %35, i32 0, i32 3
  %37 = load ptr, ptr %36, align 8, !tbaa !129
  %38 = getelementptr inbounds nuw %struct.Arrays, ptr %37, i32 0, i32 8
  %39 = load i8, ptr %38, align 4, !tbaa !134
  %40 = load ptr, ptr %3, align 8, !tbaa !53
  %41 = getelementptr inbounds nuw %struct.WOLFSSL_SESSION, ptr %40, i32 0, i32 10
  store i8 %39, ptr %41, align 4, !tbaa !55
  br label %51

42:                                               ; preds = %20
  %43 = load ptr, ptr %3, align 8, !tbaa !53
  %44 = getelementptr inbounds nuw %struct.WOLFSSL_SESSION, ptr %43, i32 0, i32 9
  %45 = getelementptr inbounds [32 x i8], ptr %44, i64 0, i64 0
  %46 = load ptr, ptr %3, align 8, !tbaa !53
  %47 = getelementptr inbounds nuw %struct.WOLFSSL_SESSION, ptr %46, i32 0, i32 3
  %48 = getelementptr inbounds [32 x i8], ptr %47, i64 0, i64 0
  call void @llvm.memcpy.p0.p0.i64(ptr align 4 %45, ptr align 8 %48, i64 32, i1 false)
  %49 = load ptr, ptr %3, align 8, !tbaa !53
  %50 = getelementptr inbounds nuw %struct.WOLFSSL_SESSION, ptr %49, i32 0, i32 10
  store i8 32, ptr %50, align 4, !tbaa !55
  br label %51

51:                                               ; preds = %42, %26
  br label %52

52:                                               ; preds = %51, %15, %9
  %53 = load ptr, ptr %2, align 8, !tbaa !61
  %54 = getelementptr inbounds nuw %struct.WOLFSSL, ptr %53, i32 0, i32 49
  %55 = getelementptr inbounds nuw %struct.Options, ptr %54, i32 0, i32 1
  %56 = load i64, ptr %55, align 8
  %57 = lshr i64 %56, 4
  %58 = and i64 %57, 3
  %59 = trunc i64 %58 to i16
  %60 = trunc i16 %59 to i8
  %61 = load ptr, ptr %3, align 8, !tbaa !53
  %62 = getelementptr inbounds nuw %struct.WOLFSSL_SESSION, ptr %61, i32 0, i32 6
  store i8 %60, ptr %62, align 8, !tbaa !91
  %63 = load ptr, ptr %2, align 8, !tbaa !61
  %64 = getelementptr inbounds nuw %struct.WOLFSSL, ptr %63, i32 0, i32 44
  %65 = load i16, ptr %64, align 2
  %66 = call i32 @IsAtLeastTLSv1_3(i16 %65)
  %67 = icmp ne i32 %66, 0
  br i1 %67, label %82, label %68

68:                                               ; preds = %52
  %69 = load ptr, ptr %2, align 8, !tbaa !61
  %70 = getelementptr inbounds nuw %struct.WOLFSSL, ptr %69, i32 0, i32 3
  %71 = load ptr, ptr %70, align 8, !tbaa !129
  %72 = icmp ne ptr %71, null
  br i1 %72, label %73, label %82

73:                                               ; preds = %68
  %74 = load ptr, ptr %3, align 8, !tbaa !53
  %75 = getelementptr inbounds nuw %struct.WOLFSSL_SESSION, ptr %74, i32 0, i32 11
  %76 = getelementptr inbounds [48 x i8], ptr %75, i64 0, i64 0
  %77 = load ptr, ptr %2, align 8, !tbaa !61
  %78 = getelementptr inbounds nuw %struct.WOLFSSL, ptr %77, i32 0, i32 3
  %79 = load ptr, ptr %78, align 8, !tbaa !129
  %80 = getelementptr inbounds nuw %struct.Arrays, ptr %79, i32 0, i32 10
  %81 = getelementptr inbounds [48 x i8], ptr %80, i64 0, i64 0
  call void @llvm.memcpy.p0.p0.i64(ptr align 1 %76, ptr align 1 %81, i64 48, i1 false)
  br label %82

82:                                               ; preds = %73, %68, %52
  %83 = load ptr, ptr %2, align 8, !tbaa !61
  %84 = getelementptr inbounds nuw %struct.WOLFSSL, ptr %83, i32 0, i32 49
  %85 = getelementptr inbounds nuw %struct.Options, ptr %84, i32 0, i32 1
  %86 = load i64, ptr %85, align 8
  %87 = lshr i64 %86, 41
  %88 = and i64 %87, 1
  %89 = trunc i64 %88 to i16
  %90 = load ptr, ptr %3, align 8, !tbaa !53
  %91 = getelementptr inbounds nuw %struct.WOLFSSL_SESSION, ptr %90, i32 0, i32 12
  store i16 %89, ptr %91, align 2, !tbaa !110
  %92 = load ptr, ptr %2, align 8, !tbaa !61
  %93 = getelementptr inbounds nuw %struct.WOLFSSL, ptr %92, i32 0, i32 36
  %94 = load i32, ptr %93, align 4, !tbaa !124
  %95 = load ptr, ptr %3, align 8, !tbaa !53
  %96 = getelementptr inbounds nuw %struct.WOLFSSL_SESSION, ptr %95, i32 0, i32 8
  store i32 %94, ptr %96, align 8, !tbaa !109
  %97 = call i32 @LowResTimer()
  %98 = load ptr, ptr %3, align 8, !tbaa !53
  %99 = getelementptr inbounds nuw %struct.WOLFSSL_SESSION, ptr %98, i32 0, i32 7
  store i32 %97, ptr %99, align 4, !tbaa !108
  %100 = load ptr, ptr %2, align 8, !tbaa !61
  %101 = getelementptr inbounds nuw %struct.WOLFSSL, ptr %100, i32 0, i32 49
  %102 = getelementptr inbounds nuw %struct.Options, ptr %101, i32 0, i32 7
  %103 = load i8, ptr %102, align 1, !tbaa !112
  %104 = load ptr, ptr %3, align 8, !tbaa !53
  %105 = getelementptr inbounds nuw %struct.WOLFSSL_SESSION, ptr %104, i32 0, i32 13
  store i8 %103, ptr %105, align 8, !tbaa !111
  %106 = load ptr, ptr %2, align 8, !tbaa !61
  %107 = getelementptr inbounds nuw %struct.WOLFSSL, ptr %106, i32 0, i32 49
  %108 = getelementptr inbounds nuw %struct.Options, ptr %107, i32 0, i32 8
  %109 = load i8, ptr %108, align 2, !tbaa !114
  %110 = load ptr, ptr %3, align 8, !tbaa !53
  %111 = getelementptr inbounds nuw %struct.WOLFSSL_SESSION, ptr %110, i32 0, i32 14
  store i8 %109, ptr %111, align 1, !tbaa !113
  %112 = load ptr, ptr %3, align 8, !tbaa !53
  %113 = getelementptr inbounds nuw %struct.WOLFSSL_SESSION, ptr %112, i32 0, i32 18
  %114 = load i8, ptr %113, align 2
  %115 = and i8 %114, -2
  %116 = or i8 %115, 1
  store i8 %116, ptr %113, align 2
  call void @llvm.lifetime.end.p0(i64 8, ptr %3) #9
  ret void
}