; Function Attrs: nounwind uwtable
define void @SetupSession(ptr noundef readonly captures(none) %0) local_unnamed_addr #0 {
  %2 = getelementptr inbounds nuw i8, ptr %0, i64 624
  %3 = load ptr, ptr %2, align 16, !tbaa !76
  %4 = getelementptr inbounds nuw i8, ptr %0, i64 710
  %5 = load i16, ptr %4, align 2
  %6 = tail call i32 @IsAtLeastTLSv1_3(i16 %5) #22
  %.not = icmp eq i32 %6, 0
  br i1 %.not, label %7, label %23

7:                                                ; preds = %1
  %8 = getelementptr inbounds nuw i8, ptr %0, i64 24
  %9 = load ptr, ptr %8, align 8, !tbaa !110
  %.not28 = icmp eq ptr %9, null
  br i1 %.not28, label %23, label %10

10:                                               ; preds = %7
  %11 = getelementptr inbounds nuw i8, ptr %3, i64 88
  %12 = load i8, ptr %11, align 8
  %13 = and i8 %12, 1
  %.not29 = icmp eq i8 %13, 0
  %14 = getelementptr inbounds nuw i8, ptr %3, i64 116
  br i1 %.not29, label %15, label %20

15:                                               ; preds = %10
  %16 = getelementptr inbounds nuw i8, ptr %9, i64 92
  tail call void @llvm.memcpy.p0.p0.i64(ptr noundef nonnull align 4 dereferenceable(32) %14, ptr noundef nonnull align 4 dereferenceable(32) %16, i64 32, i1 false)
  %17 = load ptr, ptr %8, align 8, !tbaa !110
  %18 = getelementptr inbounds nuw i8, ptr %17, i64 124
  %19 = load i8, ptr %18, align 4, !tbaa !114
  br label %.sink.split

20:                                               ; preds = %10
  %21 = getelementptr inbounds nuw i8, ptr %3, i64 56
  tail call void @llvm.memcpy.p0.p0.i64(ptr noundef nonnull align 4 dereferenceable(32) %14, ptr noundef nonnull align 8 dereferenceable(32) %21, i64 32, i1 false)
  br label %.sink.split

.sink.split:                                      ; preds = %20, %15
  %.sink = phi i8 [ %19, %15 ], [ 32, %20 ]
  %22 = getelementptr inbounds nuw i8, ptr %3, i64 148
  store i8 %.sink, ptr %22, align 4, !tbaa !77
  br label %23

23:                                               ; preds = %.sink.split, %7, %1
  %24 = getelementptr inbounds nuw i8, ptr %0, i64 1024
  %25 = load i64, ptr %24, align 8
  %26 = trunc i64 %25 to i8
  %27 = lshr i8 %26, 4
  %28 = and i8 %27, 3
  %29 = getelementptr inbounds nuw i8, ptr %3, i64 104
  store i8 %28, ptr %29, align 8, !tbaa !79
  %30 = load i16, ptr %4, align 2
  %31 = tail call i32 @IsAtLeastTLSv1_3(i16 %30) #22
  %.not30 = icmp eq i32 %31, 0
  br i1 %.not30, label %32, label %38

32:                                               ; preds = %23
  %33 = getelementptr inbounds nuw i8, ptr %0, i64 24
  %34 = load ptr, ptr %33, align 8, !tbaa !110
  %.not31 = icmp eq ptr %34, null
  br i1 %.not31, label %38, label %35

35:                                               ; preds = %32
  %36 = getelementptr inbounds nuw i8, ptr %3, i64 149
  %37 = getelementptr inbounds nuw i8, ptr %34, i64 173
  tail call void @llvm.memcpy.p0.p0.i64(ptr noundef nonnull align 1 dereferenceable(48) %36, ptr noundef nonnull align 1 dereferenceable(48) %37, i64 48, i1 false)
  br label %38

38:                                               ; preds = %35, %32, %23
  %39 = load i64, ptr %24, align 8
  %40 = lshr i64 %39, 41
  %41 = trunc i64 %40 to i16
  %42 = and i16 %41, 1
  %43 = getelementptr inbounds nuw i8, ptr %3, i64 198
  store i16 %42, ptr %43, align 2, !tbaa !91
  %44 = getelementptr inbounds nuw i8, ptr %0, i64 684
  %45 = load i32, ptr %44, align 4, !tbaa !106
  %46 = getelementptr inbounds nuw i8, ptr %3, i64 112
  store i32 %45, ptr %46, align 8, !tbaa !90
  %47 = tail call i32 @LowResTimer() #22
  %48 = getelementptr inbounds nuw i8, ptr %3, i64 108
  store i32 %47, ptr %48, align 4, !tbaa !89
  %49 = getelementptr inbounds nuw i8, ptr %0, i64 1037
  %50 = load i8, ptr %49, align 1, !tbaa !93
  %51 = getelementptr inbounds nuw i8, ptr %3, i64 200
  store i8 %50, ptr %51, align 8, !tbaa !92
  %52 = getelementptr inbounds nuw i8, ptr %0, i64 1038
  %53 = load i8, ptr %52, align 2, !tbaa !95
  %54 = getelementptr inbounds nuw i8, ptr %3, i64 201
  store i8 %53, ptr %54, align 1, !tbaa !94
  %55 = getelementptr inbounds nuw i8, ptr %3, i64 226
  %56 = load i8, ptr %55, align 2
  %57 = or i8 %56, 1
  store i8 %57, ptr %55, align 2
  ret void
}